target datalayout = "e-m:e-p270:32:32-p271:32:32-p272:64:64-i64:64-i128:128-f80:128-n8:16:32:64-S128"
target triple = "x86_64-unknown-linux-gnu"

%"struct.node::AssertionInfo" = type { ptr, ptr, ptr }
%struct.__sigset_t = type { [16 x i64] }
%struct.sigaction = type { %union.anon.363, %struct.__sigset_t, i32, ptr }
%union.anon.363 = type { ptr }

@_ZZN4node19ResetSignalHandlersEvE4args = internal constant %"struct.node::AssertionInfo" { ptr @.str.40, ptr @.str.41, ptr @.str.42 }, align 8
@_ZZN4node19ResetSignalHandlersEvE4args_0 = internal constant %"struct.node::AssertionInfo" { ptr @.str.43, ptr @.str.44, ptr @.str.42 }, align 8

; Function Attrs: mustprogress nounwind uwtable
define dso_local void @_ZN4node19ResetSignalHandlersEv() #5 {
entry:
  %act = alloca %struct.sigaction, align 8
  %nr = alloca i32, align 4
  %old = alloca %struct.sigaction, align 8
  call void @llvm.memset.p0.i64(ptr align 8 %act, i8 0, i64 152, i1 false)
  store i32 1, ptr %nr, align 4
  br label %for.cond

for.cond:                                         ; preds = %for.inc, %entry
  %0 = load i32, ptr %nr, align 4
  %cmp = icmp ult i32 %0, 32
  br i1 %cmp, label %for.body, label %for.end

for.body:                                         ; preds = %for.cond
  %1 = load i32, ptr %nr, align 4
  %cmp1 = icmp eq i32 %1, 9
  br i1 %cmp1, label %if.then, label %lor.lhs.false

lor.lhs.false:                                    ; preds = %for.body
  %2 = load i32, ptr %nr, align 4
  %cmp2 = icmp eq i32 %2, 19
  br i1 %cmp2, label %if.then, label %if.end

if.then:                                          ; preds = %lor.lhs.false, %for.body
  br label %for.inc

if.end:                                           ; preds = %lor.lhs.false
  %3 = load i32, ptr %nr, align 4
  %cmp3 = icmp eq i32 %3, 13
  br i1 %cmp3, label %lor.end, label %lor.rhs

lor.rhs:                                          ; preds = %if.end
  %4 = load i32, ptr %nr, align 4
  %cmp4 = icmp eq i32 %4, 25
  br label %lor.end

lor.end:                                          ; preds = %lor.rhs, %if.end
  %5 = phi i1 [ true, %if.end ], [ %cmp4, %lor.rhs ]
  %cond = select i1 %5, ptr inttoptr (i64 1 to ptr), ptr null
  %__sigaction_handler = getelementptr inbounds %struct.sigaction, ptr %act, i32 0, i32 0
  store ptr %cond, ptr %__sigaction_handler, align 8
  %__sigaction_handler5 = getelementptr inbounds %struct.sigaction, ptr %act, i32 0, i32 0
  %6 = load ptr, ptr %__sigaction_handler5, align 8
  %cmp6 = icmp eq ptr %6, null
  br i1 %cmp6, label %if.then7, label %if.end20

if.then7:                                         ; preds = %lor.end
  br label %do.body

do.body:                                          ; preds = %if.then7
  %7 = load i32, ptr %nr, align 4
  %call = call i32 @sigaction(i32 noundef %7, ptr noundef null, ptr noundef %old) #3
  %cmp8 = icmp eq i32 0, %call
  %lnot = xor i1 %cmp8, true
  %lnot9 = xor i1 %lnot, true
  %lnot10 = xor i1 %lnot9, true
  br i1 %lnot10, label %if.then11, label %if.end13

if.then11:                                        ; preds = %do.body
  br label %do.body12

do.body12:                                        ; preds = %if.then11
  call void @_ZN4node6AssertERKNS_13AssertionInfoE(ptr noundef nonnull align 8 dereferenceable(24) @_ZZN4node19ResetSignalHandlersEvE4args)
  call void @abort() #18
  unreachable

do.end:                                           ; No predecessors!
  br label %if.end13

if.end13:                                         ; preds = %do.end, %do.body
  br label %do.end14

do.end14:                                         ; preds = %if.end13
  %sa_flags = getelementptr inbounds %struct.sigaction, ptr %old, i32 0, i32 2
  %8 = load i32, ptr %sa_flags, align 8
  %and = and i32 %8, 4
  %tobool = icmp ne i32 %and, 0
  br i1 %tobool, label %if.then18, label %lor.lhs.false15

lor.lhs.false15:                                  ; preds = %do.end14
  %__sigaction_handler16 = getelementptr inbounds %struct.sigaction, ptr %old, i32 0, i32 0
  %9 = load ptr, ptr %__sigaction_handler16, align 8
  %cmp17 = icmp ne ptr %9, inttoptr (i64 1 to ptr)
  br i1 %cmp17, label %if.then18, label %if.end19

if.then18:                                        ; preds = %lor.lhs.false15, %do.end14
  br label %for.inc

if.end19:                                         ; preds = %lor.lhs.false15
  br label %if.end20

if.end20:                                         ; preds = %if.end19, %lor.end
  br label %do.body21

do.body21:                                        ; preds = %if.end20
  %10 = load i32, ptr %nr, align 4
  %call22 = call i32 @sigaction(i32 noundef %10, ptr noundef %act, ptr noundef null) #3
  %cmp23 = icmp eq i32 0, %call22
  %lnot24 = xor i1 %cmp23, true
  %lnot25 = xor i1 %lnot24, true
  %lnot26 = xor i1 %lnot25, true
  br i1 %lnot26, label %if.then27, label %if.end30

if.then27:                                        ; preds = %do.body21
  br label %do.body28

do.body28:                                        ; preds = %if.then27
  call void @_ZN4node6AssertERKNS_13AssertionInfoE(ptr noundef nonnull align 8 dereferenceable(24) @_ZZN4node19ResetSignalHandlersEvE4args_0)
  call void @abort() #18
  unreachable

do.end29:                                         ; No predecessors!
  br label %if.end30

if.end30:                                         ; preds = %do.end29, %do.body21
  br label %do.end31

do.end31:                                         ; preds = %if.end30
  br label %for.inc

for.inc:                                          ; preds = %do.end31, %if.then18, %if.then
  %11 = load i32, ptr %nr, align 4
  %add = add i32 %11, 1
  store i32 %add, ptr %nr, align 4
  br label %for.cond, !llvm.loop !9

for.end:                                          ; preds = %for.cond
  ret void
}