; Function Attrs: mustprogress nounwind uwtable
define dso_local void @_ZN4node19ResetSignalHandlersEv() local_unnamed_addr #4 {
entry:
  %act = alloca %struct.sigaction, align 8
  %old = alloca %struct.sigaction, align 8
  %0 = getelementptr inbounds i8, ptr %act, i64 8
  call void @llvm.memset.p0.i64(ptr noundef nonnull align 8 dereferenceable(152) %0, i8 0, i64 144, i1 false)
  %sa_flags = getelementptr inbounds i8, ptr %old, i64 136
  br label %for.body

for.body:                                         ; preds = %entry, %for.inc
  %nr.09 = phi i32 [ 1, %entry ], [ %add, %for.inc ]
  switch i32 %nr.09, label %if.end [
    i32 19, label %for.inc
    i32 9, label %for.inc
  ]

if.end:                                           ; preds = %for.body
  %cmp3 = icmp ne i32 %nr.09, 13
  %cmp4 = icmp ne i32 %nr.09, 25
  %.not = and i1 %cmp3, %cmp4
  %cond = select i1 %.not, ptr null, ptr inttoptr (i64 1 to ptr)
  store ptr %cond, ptr %act, align 8
  switch i32 %nr.09, label %do.body [
    i32 25, label %do.body21
    i32 13, label %do.body21
  ]

do.body:                                          ; preds = %if.end
  %call = call i32 @sigaction(i32 noundef %nr.09, ptr noundef null, ptr noundef nonnull %old) #23
  %cmp8.not = icmp eq i32 %call, 0
  br i1 %cmp8.not, label %do.end14, label %do.body12

do.body12:                                        ; preds = %do.body
  call void @_ZN4node6AssertERKNS_13AssertionInfoE(ptr noundef nonnull align 8 dereferenceable(24) @_ZZN4node19ResetSignalHandlersEvE4args) #23
  call void @abort() #26
  unreachable

do.end14:                                         ; preds = %do.body
  %1 = load i32, ptr %sa_flags, align 8
  %and = and i32 %1, 4
  %tobool = icmp ne i32 %and, 0
  %2 = load ptr, ptr %old, align 8
  %cmp17 = icmp ne ptr %2, inttoptr (i64 1 to ptr)
  %or.cond1 = select i1 %tobool, i1 true, i1 %cmp17
  br i1 %or.cond1, label %for.inc, label %do.body21

do.body21:                                        ; preds = %if.end, %if.end, %do.end14
  %call22 = call i32 @sigaction(i32 noundef %nr.09, ptr noundef nonnull %act, ptr noundef null) #23
  %cmp23.not = icmp eq i32 %call22, 0
  br i1 %cmp23.not, label %for.inc, label %do.body28

do.body28:                                        ; preds = %do.body21
  call void @_ZN4node6AssertERKNS_13AssertionInfoE(ptr noundef nonnull align 8 dereferenceable(24) @_ZZN4node19ResetSignalHandlersEvE4args_0) #23
  call void @abort() #26
  unreachable

for.inc:                                          ; preds = %for.body, %for.body, %do.body21, %do.end14
  %add = add nuw nsw i32 %nr.09, 1
  %exitcond.not = icmp eq i32 %add, 32
  br i1 %exitcond.not, label %for.end, label %for.body, !llvm.loop !36

for.end:                                          ; preds = %for.inc
  ret void
}